target datalayout = "e-m:e-p270:32:32-p271:32:32-p272:64:64-i64:64-i128:128-f80:128-n8:16:32:64-S128"
target triple = "x86_64-pc-linux-gnu"

%struct.rb_data_type_struct = type { ptr, %struct.anon, ptr, ptr, i64 }
%struct.anon = type { ptr, ptr, ptr, ptr, [1 x ptr] }
%struct.rb_random_mt_t = type { %struct.rb_random_struct, %struct.MT }
%struct.rb_random_struct = type { i64 }
%struct.MT = type { [624 x i32], ptr, i32 }

@random_mt_type = internal constant %struct.rb_data_type_struct { ptr @.str.24, %struct.anon { ptr @rb_random_mark, ptr inttoptr (i64 -1 to ptr), ptr @random_mt_memsize, ptr null, [1 x ptr] zeroinitializer }, ptr @rb_random_data_type_1_0, ptr @random_mt_if, i64 1 }, align 8

; Function Attrs: inlinehint nounwind sspstrong willreturn memory(none) uwtable
define internal i64 @RB_INT2FIX(i64 noundef %0) #8 {
  %2 = alloca i64, align 8
  %3 = alloca i64, align 8
  %4 = alloca i64, align 8
  %5 = alloca i64, align 8
  %6 = alloca i64, align 8
  %7 = alloca i64, align 8
  store i64 %0, ptr %2, align 8, !tbaa !26
  call void @llvm.lifetime.start.p0(i64 8, ptr %3) #24
  %8 = load i64, ptr %2, align 8, !tbaa !26
  store i64 %8, ptr %3, align 8, !tbaa !26
  call void @llvm.lifetime.start.p0(i64 8, ptr %4) #24
  %9 = load i64, ptr %3, align 8, !tbaa !26
  %10 = shl i64 %9, 1
  %11 = add i64 %10, 1
  store i64 %11, ptr %4, align 8, !tbaa !26
  call void @llvm.lifetime.start.p0(i64 8, ptr %5) #24
  %12 = load i64, ptr %4, align 8, !tbaa !26
  store i64 %12, ptr %5, align 8, !tbaa !26
  call void @llvm.lifetime.start.p0(i64 8, ptr %6) #24
  %13 = load i64, ptr %5, align 8, !tbaa !26
  store i64 %13, ptr %6, align 8, !tbaa !26
  call void @llvm.lifetime.start.p0(i64 8, ptr %7) #24
  %14 = load i64, ptr %6, align 8, !tbaa !26
  store i64 %14, ptr %7, align 8, !tbaa !26
  %15 = load i64, ptr %7, align 8, !tbaa !26
  call void @llvm.lifetime.end.p0(i64 8, ptr %7) #24
  call void @llvm.lifetime.end.p0(i64 8, ptr %6) #24
  call void @llvm.lifetime.end.p0(i64 8, ptr %5) #24
  call void @llvm.lifetime.end.p0(i64 8, ptr %4) #24
  call void @llvm.lifetime.end.p0(i64 8, ptr %3) #24
  ret i64 %15
}

; Function Attrs: nounwind sspstrong uwtable
define internal i64 @mt_state(ptr noundef %0) #0 {
  %2 = alloca ptr, align 8
  store ptr %0, ptr %2, align 8, !tbaa !12
  %3 = load ptr, ptr %2, align 8, !tbaa !12
  %4 = getelementptr inbounds nuw %struct.MT, ptr %3, i32 0, i32 0
  %5 = getelementptr inbounds [624 x i32], ptr %4, i64 0, i64 0
  %6 = call i64 @rb_integer_unpack(ptr noundef %5, i64 noundef 624, i64 noundef 4, i64 noundef 0, i32 noundef 66)
  ret i64 %6
}

; Function Attrs: nounwind sspstrong uwtable
define internal i64 @rand_mt_dump(i64 noundef %0) #0 {
  %2 = alloca i64, align 8
  %3 = alloca ptr, align 8
  %4 = alloca i64, align 8
  store i64 %0, ptr %2, align 8, !tbaa !26
  call void @llvm.lifetime.start.p0(i64 8, ptr %3) #24
  %5 = load i64, ptr %2, align 8, !tbaa !26
  %6 = call ptr @rb_check_typeddata(i64 noundef %5, ptr noundef @random_mt_type)
  store ptr %6, ptr %3, align 8, !tbaa !20
  call void @llvm.lifetime.start.p0(i64 8, ptr %4) #24
  %7 = call i64 @rb_ary_new_capa(i64 noundef 3)
  store i64 %7, ptr %4, align 8, !tbaa !26
  %8 = load i64, ptr %4, align 8, !tbaa !26
  %9 = load ptr, ptr %3, align 8, !tbaa !20
  %10 = getelementptr inbounds nuw %struct.rb_random_mt_t, ptr %9, i32 0, i32 1
  %11 = call i64 @mt_state(ptr noundef %10)
  %12 = call i64 @rb_ary_push(i64 noundef %8, i64 noundef %11)
  %13 = load i64, ptr %4, align 8, !tbaa !26
  %14 = load ptr, ptr %3, align 8, !tbaa !20
  %15 = getelementptr inbounds nuw %struct.rb_random_mt_t, ptr %14, i32 0, i32 1
  %16 = getelementptr inbounds nuw %struct.MT, ptr %15, i32 0, i32 2
  %17 = load i32, ptr %16, align 8, !tbaa !76
  %18 = sext i32 %17 to i64
  %19 = call i64 @RB_INT2FIX(i64 noundef %18) #28
  %20 = call i64 @rb_ary_push(i64 noundef %13, i64 noundef %19)
  %21 = load i64, ptr %4, align 8, !tbaa !26
  %22 = load ptr, ptr %3, align 8, !tbaa !20
  %23 = getelementptr inbounds nuw %struct.rb_random_mt_t, ptr %22, i32 0, i32 0
  %24 = getelementptr inbounds nuw %struct.rb_random_struct, ptr %23, i32 0, i32 0
  %25 = load i64, ptr %24, align 8, !tbaa !72
  %26 = call i64 @rb_ary_push(i64 noundef %21, i64 noundef %25)
  %27 = load i64, ptr %4, align 8, !tbaa !26
  call void @llvm.lifetime.end.p0(i64 8, ptr %4) #24
  call void @llvm.lifetime.end.p0(i64 8, ptr %3) #24
  ret i64 %27
}