; Function Attrs: nounwind sspstrong uwtable
define internal i64 @rand_mt_dump(i64 noundef %0) #0 {
  %2 = tail call ptr @rb_check_typeddata(i64 noundef %0, ptr noundef nonnull @random_mt_type) #23
  %3 = tail call i64 @rb_ary_new_capa(i64 noundef 3) #23
  %4 = getelementptr inbounds nuw i8, ptr %2, i64 8
  %5 = tail call i64 @rb_integer_unpack(ptr noundef nonnull %4, i64 noundef 624, i64 noundef 4, i64 noundef 0, i32 noundef 66) #23
  %6 = tail call i64 @rb_ary_push(i64 noundef %3, i64 noundef %5) #23
  %7 = getelementptr inbounds nuw i8, ptr %2, i64 2512
  %8 = load i32, ptr %7, align 8, !tbaa !81
  %9 = sext i32 %8 to i64
  %10 = shl nsw i64 %9, 1
  %11 = or disjoint i64 %10, 1
  %12 = tail call i64 @rb_ary_push(i64 noundef %3, i64 noundef %11) #23
  %13 = load i64, ptr %2, align 8, !tbaa !19
  %14 = tail call i64 @rb_ary_push(i64 noundef %3, i64 noundef %13) #23
  ret i64 %3
}